target datalayout = "e-m:e-p270:32:32-p271:32:32-p272:64:64-i64:64-i128:128-f80:128-n8:16:32:64-S128"
target triple = "x86_64-pc-linux-gnu"

%struct.printTableOpt = type { i32, i16, i32, i32, i16, i16, i32, i8, i8, i8, i8, i64, ptr, %struct.separator, %struct.separator, [2 x i8], i8, ptr, i32, i32, i32, i32, i32, i32 }
%struct.separator = type { ptr, i8 }
%struct.printTableContent = type { ptr, ptr, i32, i32, ptr, ptr, ptr, ptr, i64, ptr, ptr, ptr, ptr, ptr }

@stderr = external global ptr, align 8
@.str.24 = private unnamed_addr constant [70 x i8] c"Cannot add cell to table content: total cell count of %lld exceeded.\0A\00", align 1

; Function Attrs: nounwind uwtable
define dso_local void @printTableAddCell(ptr noundef %0, ptr noundef %1, i1 noundef zeroext %2, i1 noundef zeroext %3) #0 {
  %5 = alloca ptr, align 8
  %6 = alloca ptr, align 8
  %7 = alloca i8, align 1
  %8 = alloca i8, align 1
  %9 = alloca i64, align 8
  store ptr %0, ptr %5, align 8
  store ptr %1, ptr %6, align 8
  %10 = zext i1 %2 to i8
  store i8 %10, ptr %7, align 1
  %11 = zext i1 %3 to i8
  store i8 %11, ptr %8, align 1
  call void @llvm.lifetime.start.p0(i64 8, ptr %9) #8
  %12 = load ptr, ptr %5, align 8
  %13 = getelementptr inbounds nuw %struct.printTableContent, ptr %12, i32 0, i32 2
  %14 = load i32, ptr %13, align 8
  %15 = sext i32 %14 to i64
  %16 = load ptr, ptr %5, align 8
  %17 = getelementptr inbounds nuw %struct.printTableContent, ptr %16, i32 0, i32 3
  %18 = load i32, ptr %17, align 4
  %19 = sext i32 %18 to i64
  %20 = mul i64 %15, %19
  store i64 %20, ptr %9, align 8
  %21 = load ptr, ptr %5, align 8
  %22 = getelementptr inbounds nuw %struct.printTableContent, ptr %21, i32 0, i32 8
  %23 = load i64, ptr %22, align 8
  %24 = load i64, ptr %9, align 8
  %25 = icmp uge i64 %23, %24
  br i1 %25, label %26, label %30

26:                                               ; preds = %4
  %27 = load ptr, ptr @stderr, align 8
  %28 = load i64, ptr %9, align 8
  %29 = call i32 (ptr, ptr, ...) @pg_fprintf(ptr noundef %27, ptr noundef @.str.24, i64 noundef %28)
  call void @exit(i32 noundef 1) #10
  unreachable

30:                                               ; preds = %4
  %31 = load ptr, ptr %6, align 8
  %32 = load ptr, ptr %5, align 8
  %33 = getelementptr inbounds nuw %struct.printTableContent, ptr %32, i32 0, i32 0
  %34 = load ptr, ptr %33, align 8
  %35 = getelementptr inbounds nuw %struct.printTableOpt, ptr %34, i32 0, i32 18
  %36 = load i32, ptr %35, align 8
  %37 = call ptr @mbvalidate(ptr noundef %31, i32 noundef %36)
  %38 = load ptr, ptr %5, align 8
  %39 = getelementptr inbounds nuw %struct.printTableContent, ptr %38, i32 0, i32 7
  %40 = load ptr, ptr %39, align 8
  store ptr %37, ptr %40, align 8
  %41 = load i8, ptr %8, align 1, !range !4, !noundef !5
  %42 = trunc i8 %41 to i1
  br i1 %42, label %43, label %63

43:                                               ; preds = %30
  %44 = load ptr, ptr %5, align 8
  %45 = getelementptr inbounds nuw %struct.printTableContent, ptr %44, i32 0, i32 9
  %46 = load ptr, ptr %45, align 8
  %47 = icmp eq ptr %46, null
  br i1 %47, label %48, label %55

48:                                               ; preds = %43
  %49 = load i64, ptr %9, align 8
  %50 = add i64 %49, 1
  %51 = mul i64 %50, 1
  %52 = call ptr @pg_malloc0(i64 noundef %51)
  %53 = load ptr, ptr %5, align 8
  %54 = getelementptr inbounds nuw %struct.printTableContent, ptr %53, i32 0, i32 9
  store ptr %52, ptr %54, align 8
  br label %55

55:                                               ; preds = %48, %43
  %56 = load ptr, ptr %5, align 8
  %57 = getelementptr inbounds nuw %struct.printTableContent, ptr %56, i32 0, i32 9
  %58 = load ptr, ptr %57, align 8
  %59 = load ptr, ptr %5, align 8
  %60 = getelementptr inbounds nuw %struct.printTableContent, ptr %59, i32 0, i32 8
  %61 = load i64, ptr %60, align 8
  %62 = getelementptr inbounds nuw i8, ptr %58, i64 %61
  store i8 1, ptr %62, align 1
  br label %63

63:                                               ; preds = %55, %30
  %64 = load ptr, ptr %5, align 8
  %65 = getelementptr inbounds nuw %struct.printTableContent, ptr %64, i32 0, i32 7
  %66 = load ptr, ptr %65, align 8
  %67 = getelementptr inbounds nuw ptr, ptr %66, i32 1
  store ptr %67, ptr %65, align 8
  %68 = load ptr, ptr %5, align 8
  %69 = getelementptr inbounds nuw %struct.printTableContent, ptr %68, i32 0, i32 8
  %70 = load i64, ptr %69, align 8
  %71 = add i64 %70, 1
  store i64 %71, ptr %69, align 8
  call void @llvm.lifetime.end.p0(i64 8, ptr %9) #8
  ret void
}