; Function Attrs: nounwind uwtable
define dso_local void @printTableAddCell(ptr noundef captures(none) %0, ptr noundef %1, i1 noundef zeroext %2, i1 noundef zeroext %3) local_unnamed_addr #3 {
  %5 = getelementptr inbounds nuw i8, ptr %0, i64 16
  %6 = load i32, ptr %5, align 8
  %7 = sext i32 %6 to i64
  %8 = getelementptr inbounds nuw i8, ptr %0, i64 20
  %9 = load i32, ptr %8, align 4
  %10 = sext i32 %9 to i64
  %11 = mul nsw i64 %10, %7
  %12 = getelementptr inbounds nuw i8, ptr %0, i64 56
  %13 = load i64, ptr %12, align 8
  %.not = icmp ult i64 %13, %11
  br i1 %.not, label %17, label %14

14:                                               ; preds = %4
  %15 = load ptr, ptr @stderr, align 8
  %16 = tail call i32 (ptr, ptr, ...) @pg_fprintf(ptr noundef %15, ptr noundef nonnull @.str.24, i64 noundef %11) #19
  tail call void @exit(i32 noundef 1) #21
  unreachable

17:                                               ; preds = %4
  %18 = load ptr, ptr %0, align 8
  %19 = getelementptr inbounds nuw i8, ptr %18, i64 96
  %20 = load i32, ptr %19, align 8
  %21 = tail call ptr @mbvalidate(ptr noundef %1, i32 noundef %20) #19
  %22 = getelementptr inbounds nuw i8, ptr %0, i64 48
  %23 = load ptr, ptr %22, align 8
  store ptr %21, ptr %23, align 8
  br i1 %3, label %24, label %35

24:                                               ; preds = %17
  %25 = getelementptr inbounds nuw i8, ptr %0, i64 64
  %26 = load ptr, ptr %25, align 8
  %27 = icmp eq ptr %26, null
  br i1 %27, label %28, label %31

28:                                               ; preds = %24
  %29 = add nsw i64 %11, 1
  %30 = tail call ptr @pg_malloc0(i64 noundef %29) #19
  store ptr %30, ptr %25, align 8
  br label %31

31:                                               ; preds = %28, %24
  %32 = phi ptr [ %30, %28 ], [ %26, %24 ]
  %33 = load i64, ptr %12, align 8
  %34 = getelementptr inbounds nuw i8, ptr %32, i64 %33
  store i8 1, ptr %34, align 1
  br label %35

35:                                               ; preds = %31, %17
  %36 = load ptr, ptr %22, align 8
  %37 = getelementptr inbounds nuw i8, ptr %36, i64 8
  store ptr %37, ptr %22, align 8
  %38 = load i64, ptr %12, align 8
  %39 = add i64 %38, 1
  store i64 %39, ptr %12, align 8
  ret void
}